; Function Attrs: nounwind uwtable
define hidden void @ssl_cipher_preference_list_free(ptr noundef captures(address_is_null) %0) local_unnamed_addr #0 {
  %2 = icmp eq ptr %0, null
  br i1 %2, label %7, label %3

3:                                                ; preds = %1
  %4 = load ptr, ptr %0, align 8, !tbaa !43
  tail call void @sk_free(ptr noundef %4) #21
  %5 = getelementptr inbounds nuw i8, ptr %0, i64 8
  %6 = load ptr, ptr %5, align 8, !tbaa !57
  tail call void @free(ptr noundef %6) #21
  tail call void @free(ptr noundef nonnull %0) #21
  br label %7

7:                                                ; preds = %1, %3
  ret void
}